; Function Attrs: nounwind uwtable
define noalias ptr @H5FL_seq_calloc(ptr noundef %0, i64 noundef %1) local_unnamed_addr #0 {
  %3 = load i8, ptr @H5FL_init_g, align 1, !tbaa !3, !range !7, !noundef !8
  %4 = trunc nuw i8 %3 to i1
  %5 = load i8, ptr @H5_libterm_g, align 1, !range !7
  %6 = trunc nuw i8 %5 to i1
  %7 = select i1 %4, i1 true, i1 %6
  br i1 %7, label %10, label %.thread3, !prof !15

.thread3:                                         ; preds = %2
  store i8 1, ptr @H5FL_init_g, align 1, !tbaa !3
  %8 = getelementptr inbounds nuw i8, ptr %0, i64 40
  %9 = load i64, ptr %8, align 8, !tbaa !121
  br label %17

10:                                               ; preds = %2
  %11 = xor i1 %6, true
  %12 = select i1 %4, i1 true, i1 %11
  br i1 %12, label %13, label %H5FL_blk_calloc.exit, !prof !87

13:                                               ; preds = %10
  %14 = getelementptr inbounds nuw i8, ptr %0, i64 40
  %15 = load i64, ptr %14, align 8, !tbaa !121
  %16 = select i1 %4, i1 true, i1 %6
  br i1 %16, label %17, label %.thread.i, !prof !87

.thread.i:                                        ; preds = %13
  store i8 1, ptr @H5FL_init_g, align 1, !tbaa !3
  br label %17

17:                                               ; preds = %.thread3, %13, %.thread.i
  %.pn = phi i64 [ %9, %.thread3 ], [ %15, %13 ], [ %15, %.thread.i ]
  %18 = mul i64 %.pn, %1
  %19 = tail call noalias ptr @H5FL_blk_malloc(ptr noundef nonnull %0, i64 noundef %18)
  %20 = icmp eq ptr %19, null
  br i1 %20, label %21, label %25

21:                                               ; preds = %17
  %22 = load i64, ptr @H5E_RESOURCE_g, align 8, !tbaa !86
  %23 = load i64, ptr @H5E_NOSPACE_g, align 8, !tbaa !86
  %24 = tail call i32 (ptr, ptr, i32, i64, i64, ptr, ...) @H5E_printf_stack(ptr noundef nonnull @.str.2, ptr noundef nonnull @__func__.H5FL_blk_calloc, i32 noundef 820, i64 noundef %22, i64 noundef %23, ptr noundef nonnull @.str.5) #10
  br label %H5FL_blk_calloc.exit

25:                                               ; preds = %17
  tail call void @llvm.memset.p0.i64(ptr nonnull align 1 %19, i8 0, i64 %18, i1 false)
  br label %H5FL_blk_calloc.exit

H5FL_blk_calloc.exit:                             ; preds = %25, %21, %10
  %.0 = phi ptr [ null, %10 ], [ null, %21 ], [ %19, %25 ]
  ret ptr %.0
}